target datalayout = "e-m:e-p270:32:32-p271:32:32-p272:64:64-i64:64-i128:128-f80:128-n8:16:32:64-S128"
target triple = "x86_64-pc-linux-gnu"

@H5P_CLS_FILE_CREATE_ID_g = external global i64, align 8
@H5_libinit_g = external global i8, align 1
@H5_libterm_g = external global i8, align 1
@.str.1 = private unnamed_addr constant [101 x i8] c"generated/home/dtcxzyw/WorkSpace/Projects/compilers/llvm-opt-benchmark/bench/hdf5/hdf5/src/H5Pfcpl.c\00", align 1
@H5E_FUNC_g = external global i64, align 8
@H5E_CANTINIT_g = external global i64, align 8
@.str.2 = private unnamed_addr constant [30 x i8] c"library initialization failed\00", align 1
@H5E_CANTSET_g = external global i64, align 8
@.str.3 = private unnamed_addr constant [22 x i8] c"can't set API context\00", align 1
@H5E_ARGS_g = external global i64, align 8
@H5E_BADVALUE_g = external global i64, align 8
@H5E_ID_g = external global i64, align 8
@H5E_BADID_g = external global i64, align 8
@.str.6 = private unnamed_addr constant [25 x i8] c"can't find object for ID\00", align 1
@H5E_PLIST_g = external global i64, align 8
@__func__.H5Pset_sizes = private unnamed_addr constant [13 x i8] c"H5Pset_sizes\00", align 1
@.str.10 = private unnamed_addr constant [31 x i8] c"file haddr_t size is not valid\00", align 1
@.str.11 = private unnamed_addr constant [30 x i8] c"file size_t size is not valid\00", align 1
@.str.12 = private unnamed_addr constant [14 x i8] c"addr_byte_num\00", align 1
@.str.13 = private unnamed_addr constant [37 x i8] c"can't set byte number for an address\00", align 1
@.str.14 = private unnamed_addr constant [13 x i8] c"obj_byte_num\00", align 1
@.str.15 = private unnamed_addr constant [34 x i8] c"can't set byte number for object \00", align 1

; Function Attrs: nounwind uwtable
define i32 @H5Pset_sizes(i64 noundef %0, i64 noundef %1, i64 noundef %2) #0 {
  %4 = alloca i64, align 8
  %5 = alloca i64, align 8
  %6 = alloca i64, align 8
  %7 = alloca ptr, align 8
  %8 = alloca i32, align 4
  %9 = alloca i8, align 1
  %10 = alloca i8, align 1
  %11 = alloca i8, align 1
  %12 = alloca i8, align 1
  store i64 %0, ptr %4, align 8
  store i64 %1, ptr %5, align 8
  store i64 %2, ptr %6, align 8
  store i32 0, ptr %8, align 4
  store i8 0, ptr %9, align 1
  store i8 0, ptr %10, align 1
  %13 = load i8, ptr @H5_libinit_g, align 1
  %14 = trunc i8 %13 to i1
  br i1 %14, label %19, label %15

15:                                               ; preds = %3
  %16 = load i8, ptr @H5_libterm_g, align 1
  %17 = trunc i8 %16 to i1
  %18 = xor i1 %17, true
  br label %19

19:                                               ; preds = %15, %3
  %20 = phi i1 [ false, %3 ], [ %18, %15 ]
  %21 = xor i1 %20, true
  %22 = xor i1 %21, true
  %23 = zext i1 %22 to i32
  %24 = sext i32 %23 to i64
  %25 = icmp ne i64 %24, 0
  br i1 %25, label %26, label %50

26:                                               ; preds = %19
  %27 = call i32 @H5_init_library()
  %28 = icmp slt i32 %27, 0
  %29 = xor i1 %28, true
  %30 = xor i1 %29, true
  %31 = zext i1 %30 to i32
  %32 = sext i32 %31 to i64
  %33 = icmp ne i64 %32, 0
  br i1 %33, label %34, label %49

34:                                               ; preds = %26
  br label %35

35:                                               ; preds = %34
  br label %36

36:                                               ; preds = %35
  br label %37

37:                                               ; preds = %36
  %38 = load i64, ptr @H5E_FUNC_g, align 8
  %39 = load i64, ptr @H5E_CANTINIT_g, align 8
  %40 = call i32 (ptr, ptr, i32, i64, i64, ptr, ...) @H5E_printf_stack(ptr noundef @.str.1, ptr noundef @__func__.H5Pset_sizes, i32 noundef 394, i64 noundef %38, i64 noundef %39, ptr noundef @.str.2)
  br label %41

41:                                               ; preds = %37
  store i8 1, ptr %10, align 1
  %42 = load i8, ptr %10, align 1
  %43 = trunc i8 %42 to i1
  %44 = zext i1 %43 to i8
  store i8 %44, ptr %10, align 1
  br label %45

45:                                               ; preds = %41
  br label %46

46:                                               ; preds = %45
  store i32 -1, ptr %8, align 4
  br label %208

47:                                               ; No predecessors!
  br label %48

48:                                               ; preds = %47
  br label %49

49:                                               ; preds = %48, %26
  br label %50

50:                                               ; preds = %49, %19
  %51 = call i32 @H5CX_push()
  %52 = icmp slt i32 %51, 0
  %53 = xor i1 %52, true
  %54 = xor i1 %53, true
  %55 = zext i1 %54 to i32
  %56 = sext i32 %55 to i64
  %57 = icmp ne i64 %56, 0
  br i1 %57, label %58, label %73

58:                                               ; preds = %50
  br label %59

59:                                               ; preds = %58
  br label %60

60:                                               ; preds = %59
  br label %61

61:                                               ; preds = %60
  %62 = load i64, ptr @H5E_FUNC_g, align 8
  %63 = load i64, ptr @H5E_CANTSET_g, align 8
  %64 = call i32 (ptr, ptr, i32, i64, i64, ptr, ...) @H5E_printf_stack(ptr noundef @.str.1, ptr noundef @__func__.H5Pset_sizes, i32 noundef 394, i64 noundef %62, i64 noundef %63, ptr noundef @.str.3)
  br label %65

65:                                               ; preds = %61
  store i8 1, ptr %10, align 1
  %66 = load i8, ptr %10, align 1
  %67 = trunc i8 %66 to i1
  %68 = zext i1 %67 to i8
  store i8 %68, ptr %10, align 1
  br label %69

69:                                               ; preds = %65
  br label %70

70:                                               ; preds = %69
  store i32 -1, ptr %8, align 4
  br label %208

71:                                               ; No predecessors!
  br label %72

72:                                               ; preds = %71
  br label %74

73:                                               ; preds = %50
  store i8 1, ptr %9, align 1
  br label %74

74:                                               ; preds = %73, %72
  %75 = call i32 @H5E_clear_stack()
  %76 = load i64, ptr %5, align 8
  %77 = icmp ne i64 %76, 0
  br i1 %77, label %78, label %106

78:                                               ; preds = %74
  %79 = load i64, ptr %5, align 8
  %80 = icmp ne i64 %79, 2
  br i1 %80, label %81, label %105

81:                                               ; preds = %78
  %82 = load i64, ptr %5, align 8
  %83 = icmp ne i64 %82, 4
  br i1 %83, label %84, label %105

84:                                               ; preds = %81
  %85 = load i64, ptr %5, align 8
  %86 = icmp ne i64 %85, 8
  br i1 %86, label %87, label %105

87:                                               ; preds = %84
  %88 = load i64, ptr %5, align 8
  %89 = icmp ne i64 %88, 16
  br i1 %89, label %90, label %105

90:                                               ; preds = %87
  br label %91

91:                                               ; preds = %90
  br label %92

92:                                               ; preds = %91
  br label %93

93:                                               ; preds = %92
  %94 = load i64, ptr @H5E_ARGS_g, align 8
  %95 = load i64, ptr @H5E_BADVALUE_g, align 8
  %96 = call i32 (ptr, ptr, i32, i64, i64, ptr, ...) @H5E_printf_stack(ptr noundef @.str.1, ptr noundef @__func__.H5Pset_sizes, i32 noundef 399, i64 noundef %94, i64 noundef %95, ptr noundef @.str.10)
  br label %97

97:                                               ; preds = %93
  store i8 1, ptr %10, align 1
  %98 = load i8, ptr %10, align 1
  %99 = trunc i8 %98 to i1
  %100 = zext i1 %99 to i8
  store i8 %100, ptr %10, align 1
  br label %101

101:                                              ; preds = %97
  br label %102

102:                                              ; preds = %101
  store i32 -1, ptr %8, align 4
  br label %208

103:                                              ; No predecessors!
  br label %104

104:                                              ; preds = %103
  br label %105

105:                                              ; preds = %104, %87, %84, %81, %78
  br label %106

106:                                              ; preds = %105, %74
  %107 = load i64, ptr %6, align 8
  %108 = icmp ne i64 %107, 0
  br i1 %108, label %109, label %137

109:                                              ; preds = %106
  %110 = load i64, ptr %6, align 8
  %111 = icmp ne i64 %110, 2
  br i1 %111, label %112, label %136

112:                                              ; preds = %109
  %113 = load i64, ptr %6, align 8
  %114 = icmp ne i64 %113, 4
  br i1 %114, label %115, label %136

115:                                              ; preds = %112
  %116 = load i64, ptr %6, align 8
  %117 = icmp ne i64 %116, 8
  br i1 %117, label %118, label %136

118:                                              ; preds = %115
  %119 = load i64, ptr %6, align 8
  %120 = icmp ne i64 %119, 16
  br i1 %120, label %121, label %136

121:                                              ; preds = %118
  br label %122

122:                                              ; preds = %121
  br label %123

123:                                              ; preds = %122
  br label %124

124:                                              ; preds = %123
  %125 = load i64, ptr @H5E_ARGS_g, align 8
  %126 = load i64, ptr @H5E_BADVALUE_g, align 8
  %127 = call i32 (ptr, ptr, i32, i64, i64, ptr, ...) @H5E_printf_stack(ptr noundef @.str.1, ptr noundef @__func__.H5Pset_sizes, i32 noundef 403, i64 noundef %125, i64 noundef %126, ptr noundef @.str.11)
  br label %128

128:                                              ; preds = %124
  store i8 1, ptr %10, align 1
  %129 = load i8, ptr %10, align 1
  %130 = trunc i8 %129 to i1
  %131 = zext i1 %130 to i8
  store i8 %131, ptr %10, align 1
  br label %132

132:                                              ; preds = %128
  br label %133

133:                                              ; preds = %132
  store i32 -1, ptr %8, align 4
  br label %208

134:                                              ; No predecessors!
  br label %135

135:                                              ; preds = %134
  br label %136

136:                                              ; preds = %135, %118, %115, %112, %109
  br label %137

137:                                              ; preds = %136, %106
  %138 = load i64, ptr %4, align 8
  %139 = load i64, ptr @H5P_CLS_FILE_CREATE_ID_g, align 8
  %140 = call ptr @H5P_object_verify(i64 noundef %138, i64 noundef %139)
  store ptr %140, ptr %7, align 8
  %141 = icmp eq ptr null, %140
  br i1 %141, label %142, label %157

142:                                              ; preds = %137
  br label %143

143:                                              ; preds = %142
  br label %144

144:                                              ; preds = %143
  br label %145

145:                                              ; preds = %144
  %146 = load i64, ptr @H5E_ID_g, align 8
  %147 = load i64, ptr @H5E_BADID_g, align 8
  %148 = call i32 (ptr, ptr, i32, i64, i64, ptr, ...) @H5E_printf_stack(ptr noundef @.str.1, ptr noundef @__func__.H5Pset_sizes, i32 noundef 408, i64 noundef %146, i64 noundef %147, ptr noundef @.str.6)
  br label %149

149:                                              ; preds = %145
  store i8 1, ptr %10, align 1
  %150 = load i8, ptr %10, align 1
  %151 = trunc i8 %150 to i1
  %152 = zext i1 %151 to i8
  store i8 %152, ptr %10, align 1
  br label %153

153:                                              ; preds = %149
  br label %154

154:                                              ; preds = %153
  store i32 -1, ptr %8, align 4
  br label %208

155:                                              ; No predecessors!
  br label %156

156:                                              ; preds = %155
  br label %157

157:                                              ; preds = %156, %137
  %158 = load i64, ptr %5, align 8
  %159 = icmp ne i64 %158, 0
  br i1 %159, label %160, label %182

160:                                              ; preds = %157
  %161 = load i64, ptr %5, align 8
  %162 = trunc i64 %161 to i8
  store i8 %162, ptr %11, align 1
  %163 = load ptr, ptr %7, align 8
  %164 = call i32 @H5P_set(ptr noundef %163, ptr noundef @.str.12, ptr noundef %11)
  %165 = icmp slt i32 %164, 0
  br i1 %165, label %166, label %181

166:                                              ; preds = %160
  br label %167

167:                                              ; preds = %166
  br label %168

168:                                              ; preds = %167
  br label %169

169:                                              ; preds = %168
  %170 = load i64, ptr @H5E_PLIST_g, align 8
  %171 = load i64, ptr @H5E_CANTSET_g, align 8
  %172 = call i32 (ptr, ptr, i32, i64, i64, ptr, ...) @H5E_printf_stack(ptr noundef @.str.1, ptr noundef @__func__.H5Pset_sizes, i32 noundef 415, i64 noundef %170, i64 noundef %171, ptr noundef @.str.13)
  br label %173

173:                                              ; preds = %169
  store i8 1, ptr %10, align 1
  %174 = load i8, ptr %10, align 1
  %175 = trunc i8 %174 to i1
  %176 = zext i1 %175 to i8
  store i8 %176, ptr %10, align 1
  br label %177

177:                                              ; preds = %173
  br label %178

178:                                              ; preds = %177
  store i32 -1, ptr %8, align 4
  br label %208

179:                                              ; No predecessors!
  br label %180

180:                                              ; preds = %179
  br label %181

181:                                              ; preds = %180, %160
  br label %182

182:                                              ; preds = %181, %157
  %183 = load i64, ptr %6, align 8
  %184 = icmp ne i64 %183, 0
  br i1 %184, label %185, label %207

185:                                              ; preds = %182
  %186 = load i64, ptr %6, align 8
  %187 = trunc i64 %186 to i8
  store i8 %187, ptr %12, align 1
  %188 = load ptr, ptr %7, align 8
  %189 = call i32 @H5P_set(ptr noundef %188, ptr noundef @.str.14, ptr noundef %12)
  %190 = icmp slt i32 %189, 0
  br i1 %190, label %191, label %206

191:                                              ; preds = %185
  br label %192

192:                                              ; preds = %191
  br label %193

193:                                              ; preds = %192
  br label %194

194:                                              ; preds = %193
  %195 = load i64, ptr @H5E_PLIST_g, align 8
  %196 = load i64, ptr @H5E_CANTSET_g, align 8
  %197 = call i32 (ptr, ptr, i32, i64, i64, ptr, ...) @H5E_printf_stack(ptr noundef @.str.1, ptr noundef @__func__.H5Pset_sizes, i32 noundef 421, i64 noundef %195, i64 noundef %196, ptr noundef @.str.15)
  br label %198

198:                                              ; preds = %194
  store i8 1, ptr %10, align 1
  %199 = load i8, ptr %10, align 1
  %200 = trunc i8 %199 to i1
  %201 = zext i1 %200 to i8
  store i8 %201, ptr %10, align 1
  br label %202

202:                                              ; preds = %198
  br label %203

203:                                              ; preds = %202
  store i32 -1, ptr %8, align 4
  br label %208

204:                                              ; No predecessors!
  br label %205

205:                                              ; preds = %204
  br label %206

206:                                              ; preds = %205, %185
  br label %207

207:                                              ; preds = %206, %182
  br label %208

208:                                              ; preds = %207, %203, %178, %154, %133, %102, %70, %46
  %209 = load i8, ptr %9, align 1
  %210 = trunc i8 %209 to i1
  %211 = xor i1 %210, true
  %212 = xor i1 %211, true
  %213 = zext i1 %212 to i32
  %214 = sext i32 %213 to i64
  %215 = icmp ne i64 %214, 0
  br i1 %215, label %216, label %218

216:                                              ; preds = %208
  %217 = call i32 @H5CX_pop(i1 noundef zeroext true)
  store i8 0, ptr %9, align 1
  br label %218

218:                                              ; preds = %216, %208
  %219 = load i8, ptr %10, align 1
  %220 = trunc i8 %219 to i1
  %221 = xor i1 %220, true
  %222 = xor i1 %221, true
  %223 = zext i1 %222 to i32
  %224 = sext i32 %223 to i64
  %225 = icmp ne i64 %224, 0
  br i1 %225, label %226, label %228

226:                                              ; preds = %218
  %227 = call i32 @H5E_dump_api_stack()
  br label %228

228:                                              ; preds = %226, %218
  %229 = load i32, ptr %8, align 4
  ret i32 %229
}