; Function Attrs: nounwind uwtable
define range(i32 -1, 1) i32 @H5Pset_sizes(i64 noundef %0, i64 noundef %1, i64 noundef %2) local_unnamed_addr #0 {
  %4 = alloca i8, align 1
  %5 = alloca i8, align 1
  %6 = load i8, ptr @H5_libinit_g, align 1
  %7 = trunc i8 %6 to i1
  %8 = load i8, ptr @H5_libterm_g, align 1
  %9 = trunc i8 %8 to i1
  %10 = select i1 %7, i1 true, i1 %9
  br i1 %10, label %18, label %11

11:                                               ; preds = %3
  %12 = tail call i32 @H5_init_library() #6
  %13 = icmp slt i32 %12, 0
  br i1 %13, label %14, label %18

14:                                               ; preds = %11
  %15 = load i64, ptr @H5E_FUNC_g, align 8
  %16 = load i64, ptr @H5E_CANTINIT_g, align 8
  %17 = tail call i32 (ptr, ptr, i32, i64, i64, ptr, ...) @H5E_printf_stack(ptr noundef nonnull @.str.1, ptr noundef nonnull @__func__.H5Pset_sizes, i32 noundef 394, i64 noundef %15, i64 noundef %16, ptr noundef nonnull @.str.2) #6
  br label %.thread52

18:                                               ; preds = %11, %3
  %19 = tail call i32 @H5CX_push() #6
  %20 = icmp slt i32 %19, 0
  br i1 %20, label %21, label %25

21:                                               ; preds = %18
  %22 = load i64, ptr @H5E_FUNC_g, align 8
  %23 = load i64, ptr @H5E_CANTSET_g, align 8
  %24 = tail call i32 (ptr, ptr, i32, i64, i64, ptr, ...) @H5E_printf_stack(ptr noundef nonnull @.str.1, ptr noundef nonnull @__func__.H5Pset_sizes, i32 noundef 394, i64 noundef %22, i64 noundef %23, ptr noundef nonnull @.str.3) #6
  br label %.thread52

25:                                               ; preds = %18
  %26 = tail call i32 @H5E_clear_stack() #6
  %.not = icmp eq i64 %1, 0
  br i1 %.not, label %34, label %27

27:                                               ; preds = %25
  %28 = add i64 %1, -2
  %29 = tail call i64 @llvm.fshl.i64(i64 %28, i64 %28, i64 63)
  switch i64 %29, label %30 [
    i64 7, label %34
    i64 3, label %34
    i64 1, label %34
    i64 0, label %34
  ]

30:                                               ; preds = %27
  %31 = load i64, ptr @H5E_ARGS_g, align 8
  %32 = load i64, ptr @H5E_BADVALUE_g, align 8
  %33 = tail call i32 (ptr, ptr, i32, i64, i64, ptr, ...) @H5E_printf_stack(ptr noundef nonnull @.str.1, ptr noundef nonnull @__func__.H5Pset_sizes, i32 noundef 399, i64 noundef %31, i64 noundef %32, ptr noundef nonnull @.str.10) #6
  br label %.thread58

34:                                               ; preds = %27, %27, %27, %27, %25
  %.not43 = icmp eq i64 %2, 0
  br i1 %.not43, label %42, label %35

35:                                               ; preds = %34
  %36 = add i64 %2, -2
  %37 = tail call i64 @llvm.fshl.i64(i64 %36, i64 %36, i64 63)
  switch i64 %37, label %38 [
    i64 7, label %42
    i64 3, label %42
    i64 1, label %42
    i64 0, label %42
  ]

38:                                               ; preds = %35
  %39 = load i64, ptr @H5E_ARGS_g, align 8
  %40 = load i64, ptr @H5E_BADVALUE_g, align 8
  %41 = tail call i32 (ptr, ptr, i32, i64, i64, ptr, ...) @H5E_printf_stack(ptr noundef nonnull @.str.1, ptr noundef nonnull @__func__.H5Pset_sizes, i32 noundef 403, i64 noundef %39, i64 noundef %40, ptr noundef nonnull @.str.11) #6
  br label %.thread58

42:                                               ; preds = %35, %35, %35, %35, %34
  %43 = load i64, ptr @H5P_CLS_FILE_CREATE_ID_g, align 8
  %44 = tail call ptr @H5P_object_verify(i64 noundef %0, i64 noundef %43) #6
  %45 = icmp eq ptr %44, null
  br i1 %45, label %46, label %50

46:                                               ; preds = %42
  %47 = load i64, ptr @H5E_ID_g, align 8
  %48 = load i64, ptr @H5E_BADID_g, align 8
  %49 = tail call i32 (ptr, ptr, i32, i64, i64, ptr, ...) @H5E_printf_stack(ptr noundef nonnull @.str.1, ptr noundef nonnull @__func__.H5Pset_sizes, i32 noundef 408, i64 noundef %47, i64 noundef %48, ptr noundef nonnull @.str.6) #6
  br label %.thread58

50:                                               ; preds = %42
  br i1 %.not, label %59, label %51

51:                                               ; preds = %50
  %52 = trunc i64 %1 to i8
  store i8 %52, ptr %4, align 1
  %53 = call i32 @H5P_set(ptr noundef nonnull %44, ptr noundef nonnull @.str.12, ptr noundef nonnull %4) #6
  %54 = icmp slt i32 %53, 0
  br i1 %54, label %55, label %59

55:                                               ; preds = %51
  %56 = load i64, ptr @H5E_PLIST_g, align 8
  %57 = load i64, ptr @H5E_CANTSET_g, align 8
  %58 = call i32 (ptr, ptr, i32, i64, i64, ptr, ...) @H5E_printf_stack(ptr noundef nonnull @.str.1, ptr noundef nonnull @__func__.H5Pset_sizes, i32 noundef 415, i64 noundef %56, i64 noundef %57, ptr noundef nonnull @.str.13) #6
  br label %.thread58

59:                                               ; preds = %51, %50
  br i1 %.not43, label %69, label %60

60:                                               ; preds = %59
  %61 = trunc i64 %2 to i8
  store i8 %61, ptr %5, align 1
  %62 = call i32 @H5P_set(ptr noundef nonnull %44, ptr noundef nonnull @.str.14, ptr noundef nonnull %5) #6
  %63 = icmp slt i32 %62, 0
  br i1 %63, label %64, label %69

64:                                               ; preds = %60
  %65 = load i64, ptr @H5E_PLIST_g, align 8
  %66 = load i64, ptr @H5E_CANTSET_g, align 8
  %67 = call i32 (ptr, ptr, i32, i64, i64, ptr, ...) @H5E_printf_stack(ptr noundef nonnull @.str.1, ptr noundef nonnull @__func__.H5Pset_sizes, i32 noundef 421, i64 noundef %65, i64 noundef %66, ptr noundef nonnull @.str.15) #6
  br label %.thread58

.thread58:                                        ; preds = %64, %55, %46, %38, %30
  %68 = call i32 @H5CX_pop(i1 noundef zeroext true) #6
  br label %.thread52

69:                                               ; preds = %59, %60
  %70 = call i32 @H5CX_pop(i1 noundef zeroext true) #6
  br label %72

.thread52:                                        ; preds = %21, %14, %.thread58
  %71 = call i32 @H5E_dump_api_stack() #6
  br label %72

72:                                               ; preds = %69, %.thread52
  %.0384755 = phi i32 [ -1, %.thread52 ], [ 0, %69 ]
  ret i32 %.0384755
}